target datalayout = "e-m:e-p270:32:32-p271:32:32-p272:64:64-i64:64-i128:128-f80:128-n8:16:32:64-S128"
target triple = "x86_64-pc-linux-gnu"

%struct.hb_paint_funcs_t = type { %struct.hb_object_header_t, %struct.anon, ptr, ptr }
%struct.hb_object_header_t = type { %struct.hb_reference_count_t, %struct.hb_atomic_int_t, %struct.hb_atomic_ptr_t }
%struct.hb_reference_count_t = type { %struct.hb_atomic_int_t }
%struct.hb_atomic_int_t = type { i32 }
%struct.hb_atomic_ptr_t = type { ptr }
%struct.anon = type { ptr, ptr, ptr, ptr, ptr, ptr, ptr, ptr, ptr, ptr, ptr, ptr, ptr, ptr }
%struct.anon.1 = type { ptr, ptr, ptr, ptr, ptr, ptr, ptr, ptr, ptr, ptr, ptr, ptr, ptr, ptr }

; Function Attrs: mustprogress uwtable
define linkonce_odr hidden void @_ZN16hb_paint_funcs_t15radial_gradientEPvP15hb_color_line_tffffff(ptr noundef nonnull align 8 dereferenceable(144) %0, ptr noundef %1, ptr noundef %2, float noundef %3, float noundef %4, float noundef %5, float noundef %6, float noundef %7, float noundef %8) #0 comdat align 2 {
  %10 = alloca ptr, align 8
  %11 = alloca ptr, align 8
  %12 = alloca ptr, align 8
  %13 = alloca float, align 4
  %14 = alloca float, align 4
  %15 = alloca float, align 4
  %16 = alloca float, align 4
  %17 = alloca float, align 4
  %18 = alloca float, align 4
  store ptr %0, ptr %10, align 8
  store ptr %1, ptr %11, align 8
  store ptr %2, ptr %12, align 8
  store float %3, ptr %13, align 4
  store float %4, ptr %14, align 4
  store float %5, ptr %15, align 4
  store float %6, ptr %16, align 4
  store float %7, ptr %17, align 4
  store float %8, ptr %18, align 4
  %19 = load ptr, ptr %10, align 8
  %20 = getelementptr inbounds %struct.hb_paint_funcs_t, ptr %19, i32 0, i32 1
  %21 = getelementptr inbounds %struct.anon, ptr %20, i32 0, i32 9
  %22 = load ptr, ptr %21, align 8
  %23 = load ptr, ptr %11, align 8
  %24 = load ptr, ptr %12, align 8
  %25 = load float, ptr %13, align 4
  %26 = load float, ptr %14, align 4
  %27 = load float, ptr %15, align 4
  %28 = load float, ptr %16, align 4
  %29 = load float, ptr %17, align 4
  %30 = load float, ptr %18, align 4
  %31 = getelementptr inbounds %struct.hb_paint_funcs_t, ptr %19, i32 0, i32 2
  %32 = load ptr, ptr %31, align 8
  %33 = icmp ne ptr %32, null
  br i1 %33, label %35, label %34

34:                                               ; preds = %9
  br label %40

35:                                               ; preds = %9
  %36 = getelementptr inbounds %struct.hb_paint_funcs_t, ptr %19, i32 0, i32 2
  %37 = load ptr, ptr %36, align 8
  %38 = getelementptr inbounds %struct.anon.1, ptr %37, i32 0, i32 9
  %39 = load ptr, ptr %38, align 8
  br label %40

40:                                               ; preds = %35, %34
  %41 = phi ptr [ null, %34 ], [ %39, %35 ]
  call void %22(ptr noundef %19, ptr noundef %23, ptr noundef %24, float noundef %25, float noundef %26, float noundef %27, float noundef %28, float noundef %29, float noundef %30, ptr noundef %41)
  ret void
}

; Function Attrs: mustprogress uwtable
define hidden void @hb_paint_radial_gradient(ptr noundef %0, ptr noundef %1, ptr noundef %2, float noundef %3, float noundef %4, float noundef %5, float noundef %6, float noundef %7, float noundef %8) #0 {
  %10 = alloca ptr, align 8
  %11 = alloca ptr, align 8
  %12 = alloca ptr, align 8
  %13 = alloca float, align 4
  %14 = alloca float, align 4
  %15 = alloca float, align 4
  %16 = alloca float, align 4
  %17 = alloca float, align 4
  %18 = alloca float, align 4
  store ptr %0, ptr %10, align 8
  store ptr %1, ptr %11, align 8
  store ptr %2, ptr %12, align 8
  store float %3, ptr %13, align 4
  store float %4, ptr %14, align 4
  store float %5, ptr %15, align 4
  store float %6, ptr %16, align 4
  store float %7, ptr %17, align 4
  store float %8, ptr %18, align 4
  %19 = load ptr, ptr %10, align 8
  %20 = load ptr, ptr %11, align 8
  %21 = load ptr, ptr %12, align 8
  %22 = load float, ptr %13, align 4
  %23 = load float, ptr %14, align 4
  %24 = load float, ptr %15, align 4
  %25 = load float, ptr %17, align 4
  %26 = load float, ptr %16, align 4
  %27 = load float, ptr %18, align 4
  call void @_ZN16hb_paint_funcs_t15radial_gradientEPvP15hb_color_line_tffffff(ptr noundef nonnull align 8 dereferenceable(144) %19, ptr noundef %20, ptr noundef %21, float noundef %22, float noundef %23, float noundef %24, float noundef %25, float noundef %26, float noundef %27)
  ret void
}