; Function Attrs: mustprogress uwtable
define hidden void @hb_paint_radial_gradient(ptr noundef %0, ptr noundef %1, ptr noundef %2, float noundef %3, float noundef %4, float noundef %5, float noundef %6, float noundef %7, float noundef %8) local_unnamed_addr #0 {
  %10 = getelementptr inbounds i8, ptr %0, i64 88
  %11 = load ptr, ptr %10, align 8
  %12 = getelementptr inbounds i8, ptr %0, i64 128
  %13 = load ptr, ptr %12, align 8
  %.not.i = icmp eq ptr %13, null
  br i1 %.not.i, label %_ZN16hb_paint_funcs_t15radial_gradientEPvP15hb_color_line_tffffff.exit, label %14

14:                                               ; preds = %9
  %15 = getelementptr inbounds i8, ptr %13, i64 72
  %16 = load ptr, ptr %15, align 8
  br label %_ZN16hb_paint_funcs_t15radial_gradientEPvP15hb_color_line_tffffff.exit

_ZN16hb_paint_funcs_t15radial_gradientEPvP15hb_color_line_tffffff.exit: ; preds = %9, %14
  %17 = phi ptr [ %16, %14 ], [ null, %9 ]
  tail call void %11(ptr noundef nonnull %0, ptr noundef %1, ptr noundef %2, float noundef %3, float noundef %4, float noundef %5, float noundef %7, float noundef %6, float noundef %8, ptr noundef %17)
  ret void
}